; Function Attrs: mustprogress uwtable
define internal noundef zeroext i1 @_ZN3net12_GLOBAL__N_113DefaultPolicyEN4base16BasicStringPieceINSt7__cxx1112basic_stringIcSt11char_traitsIcESaIcEEEEES9_(ptr %0, i64 %1, ptr readnone captures(none) %2, i64 %3) #0 {
  %5 = alloca %"class.base::BasicStringPiece", align 8
  %6 = alloca %"class.base::BasicStringPiece", align 8
  store ptr %0, ptr %5, align 8
  %7 = getelementptr inbounds nuw i8, ptr %5, i64 8
  store i64 %1, ptr %7, align 8
  %8 = icmp eq i64 %1, 0
  br i1 %8, label %15, label %9

9:                                                ; preds = %4
  %10 = load i8, ptr %0, align 1, !tbaa !50
  %11 = icmp eq i8 %10, 58
  br i1 %11, label %12, label %15

12:                                               ; preds = %9
  call void @llvm.lifetime.start.p0(i64 16, ptr nonnull %6) #15
  store ptr @.str.3, ptr %6, align 8, !tbaa !51
  %13 = getelementptr inbounds nuw i8, ptr %6, i64 8
  store i64 10, ptr %13, align 8, !tbaa !53
  %14 = call noundef zeroext i1 @_ZN4baseeqERKNS_16BasicStringPieceINSt7__cxx1112basic_stringIcSt11char_traitsIcESaIcEEEEES9_(ptr noundef nonnull align 8 dereferenceable(16) %5, ptr noundef nonnull align 8 dereferenceable(16) %6)
  call void @llvm.lifetime.end.p0(i64 16, ptr nonnull %6) #15
  br label %15

15:                                               ; preds = %9, %4, %12
  %.0 = phi i1 [ %14, %12 ], [ false, %4 ], [ true, %9 ]
  ret i1 %.0
}